target datalayout = "e-m:e-p270:32:32-p271:32:32-p272:64:64-i64:64-i128:128-f80:128-n8:16:32:64-S128"
target triple = "x86_64-pc-linux-gnu"

%struct.Hacl_Hash_SHA3_hash_buf_s = type { i8, ptr }
%struct.Hacl_Hash_SHA3_state_t_s = type { %struct.Hacl_Hash_SHA3_hash_buf_s, ptr, i64 }

@.str = private unnamed_addr constant [70 x i8] c"Maximum allocatable size exceeded, aborting before overflow at %s:%d\0A\00", align 1
@.str.1 = private unnamed_addr constant [42 x i8] c"../cpython/Modules/_hacl/Hacl_Hash_SHA3.c\00", align 1
@stderr = external global ptr, align 8
@.str.2 = private unnamed_addr constant [35 x i8] c"KaRaMeL incomplete match at %s:%d\0A\00", align 1

; Function Attrs: nounwind uwtable
define internal i32 @block_len(i8 noundef zeroext %0) #0 {
  %2 = alloca i32, align 4
  %3 = alloca i8, align 1
  store i8 %0, ptr %3, align 1, !tbaa !3
  %4 = load i8, ptr %3, align 1, !tbaa !3
  %5 = zext i8 %4 to i32
  switch i32 %5, label %12 [
    i32 9, label %6
    i32 8, label %7
    i32 10, label %8
    i32 11, label %9
    i32 12, label %10
    i32 13, label %11
  ]

6:                                                ; preds = %1
  store i32 144, ptr %2, align 4
  br label %15

7:                                                ; preds = %1
  store i32 136, ptr %2, align 4
  br label %15

8:                                                ; preds = %1
  store i32 104, ptr %2, align 4
  br label %15

9:                                                ; preds = %1
  store i32 72, ptr %2, align 4
  br label %15

10:                                               ; preds = %1
  store i32 168, ptr %2, align 4
  br label %15

11:                                               ; preds = %1
  store i32 136, ptr %2, align 4
  br label %15

12:                                               ; preds = %1
  %13 = load ptr, ptr @stderr, align 8, !tbaa !15
  %14 = call i32 (ptr, ptr, ...) @fprintf(ptr noundef %13, ptr noundef @.str.2, ptr noundef @.str.1, i32 noundef 203) #10
  call void @exit(i32 noundef 253) #11
  unreachable

15:                                               ; preds = %11, %10, %9, %8, %7, %6
  %16 = load i32, ptr %2, align 4
  ret i32 %16
}

; Function Attrs: nounwind uwtable
define hidden ptr @python_hashlib_Hacl_Hash_SHA3_malloc(i8 noundef zeroext %0) #0 {
  %2 = alloca i8, align 1
  %3 = alloca ptr, align 8
  %4 = alloca ptr, align 8
  %5 = alloca %struct.Hacl_Hash_SHA3_hash_buf_s, align 8
  %6 = alloca %struct.Hacl_Hash_SHA3_state_t_s, align 8
  %7 = alloca ptr, align 8
  %8 = alloca ptr, align 8
  store i8 %0, ptr %2, align 1, !tbaa !3
  br label %9

9:                                                ; preds = %1
  %10 = load i8, ptr %2, align 1, !tbaa !3
  %11 = call i32 @block_len(i8 noundef zeroext %10)
  %12 = zext i32 %11 to i64
  %13 = icmp ugt i64 %12, -1
  br i1 %13, label %14, label %16

14:                                               ; preds = %9
  %15 = call i32 (ptr, ...) @printf(ptr noundef @.str, ptr noundef @.str.1, i32 noundef 563)
  call void @exit(i32 noundef 253) #11
  unreachable

16:                                               ; preds = %9
  br label %17

17:                                               ; preds = %16
  call void @llvm.lifetime.start.p0(i64 8, ptr %3) #10
  %18 = load i8, ptr %2, align 1, !tbaa !3
  %19 = call i32 @block_len(i8 noundef zeroext %18)
  %20 = zext i32 %19 to i64
  %21 = call noalias ptr @calloc(i64 noundef %20, i64 noundef 1) #12
  store ptr %21, ptr %3, align 8, !tbaa !9
  call void @llvm.lifetime.start.p0(i64 8, ptr %4) #10
  %22 = call noalias ptr @calloc(i64 noundef 25, i64 noundef 8) #12
  store ptr %22, ptr %4, align 8, !tbaa !6
  call void @llvm.lifetime.start.p0(i64 16, ptr %5) #10
  %23 = getelementptr inbounds nuw %struct.Hacl_Hash_SHA3_hash_buf_s, ptr %5, i32 0, i32 0
  %24 = load i8, ptr %2, align 1, !tbaa !3
  store i8 %24, ptr %23, align 8, !tbaa !31
  %25 = getelementptr i8, ptr %5, i64 1
  call void @llvm.memset.p0.i64(ptr align 1 %25, i8 0, i64 7, i1 false)
  %26 = getelementptr inbounds nuw %struct.Hacl_Hash_SHA3_hash_buf_s, ptr %5, i32 0, i32 1
  %27 = load ptr, ptr %4, align 8, !tbaa !6
  store ptr %27, ptr %26, align 8, !tbaa !33
  call void @llvm.lifetime.start.p0(i64 32, ptr %6) #10
  %28 = getelementptr inbounds nuw %struct.Hacl_Hash_SHA3_state_t_s, ptr %6, i32 0, i32 0
  call void @llvm.memcpy.p0.p0.i64(ptr align 8 %28, ptr align 8 %5, i64 16, i1 false), !tbaa.struct !30
  %29 = getelementptr inbounds nuw %struct.Hacl_Hash_SHA3_state_t_s, ptr %6, i32 0, i32 1
  %30 = load ptr, ptr %3, align 8, !tbaa !9
  store ptr %30, ptr %29, align 8, !tbaa !34
  %31 = getelementptr inbounds nuw %struct.Hacl_Hash_SHA3_state_t_s, ptr %6, i32 0, i32 2
  store i64 0, ptr %31, align 8, !tbaa !36
  call void @llvm.lifetime.start.p0(i64 8, ptr %7) #10
  %32 = call noalias ptr @malloc(i64 noundef 32) #13
  store ptr %32, ptr %7, align 8, !tbaa !28
  %33 = load ptr, ptr %7, align 8, !tbaa !28
  %34 = getelementptr %struct.Hacl_Hash_SHA3_state_t_s, ptr %33, i64 0
  call void @llvm.memcpy.p0.p0.i64(ptr align 8 %34, ptr align 8 %6, i64 32, i1 false), !tbaa.struct !37
  call void @llvm.lifetime.start.p0(i64 8, ptr %8) #10
  %35 = getelementptr inbounds nuw %struct.Hacl_Hash_SHA3_hash_buf_s, ptr %5, i32 0, i32 1
  %36 = load ptr, ptr %35, align 8, !tbaa !33
  store ptr %36, ptr %8, align 8, !tbaa !6
  %37 = load ptr, ptr %8, align 8, !tbaa !6
  call void @llvm.memset.p0.i64(ptr align 8 %37, i8 0, i64 200, i1 false)
  %38 = load ptr, ptr %7, align 8, !tbaa !28
  call void @llvm.lifetime.end.p0(i64 8, ptr %8) #10
  call void @llvm.lifetime.end.p0(i64 8, ptr %7) #10
  call void @llvm.lifetime.end.p0(i64 32, ptr %6) #10
  call void @llvm.lifetime.end.p0(i64 16, ptr %5) #10
  call void @llvm.lifetime.end.p0(i64 8, ptr %4) #10
  call void @llvm.lifetime.end.p0(i64 8, ptr %3) #10
  ret ptr %38
}