; Function Attrs: nofree nounwind uwtable
define hidden noalias noundef ptr @python_hashlib_Hacl_Hash_SHA3_malloc(i8 noundef zeroext %0) local_unnamed_addr #0 {
  %.off = add i8 %0, -8
  %switch = icmp ult i8 %.off, 6
  br i1 %switch, label %block_len.exit, label %2

2:                                                ; preds = %1
  %3 = load ptr, ptr @stderr, align 8, !tbaa !3
  %4 = tail call i32 (ptr, ptr, ...) @fprintf(ptr noundef %3, ptr noundef nonnull @.str.2, ptr noundef nonnull @.str.1, i32 noundef 203) #17
  tail call void @exit(i32 noundef 253) #18
  unreachable

block_len.exit:                                   ; preds = %1
  %switch.tableidx = add nsw i8 %0, -8
  %5 = zext nneg i8 %switch.tableidx to i64
  %switch.gep = getelementptr inbounds nuw [6 x i64], ptr @switch.table.digest_.18, i64 0, i64 %5
  %switch.load = load i64, ptr %switch.gep, align 8
  %6 = tail call noalias ptr @calloc(i64 noundef %switch.load, i64 noundef 1) #20
  %7 = tail call noalias dereferenceable_or_null(200) ptr @calloc(i64 noundef 25, i64 noundef 8) #20
  %8 = tail call noalias dereferenceable_or_null(32) ptr @malloc(i64 noundef 32) #21
  store i8 %0, ptr %8, align 8, !tbaa !18
  %.sroa.0.sroa.4.0..sroa_idx = getelementptr inbounds nuw i8, ptr %8, i64 1
  tail call void @llvm.memset.p0.i64(ptr noundef nonnull align 1 dereferenceable(7) %.sroa.0.sroa.4.0..sroa_idx, i8 0, i64 7, i1 false)
  %.sroa.0.sroa.5.0..sroa_idx = getelementptr inbounds nuw i8, ptr %8, i64 8
  store ptr %7, ptr %.sroa.0.sroa.5.0..sroa_idx, align 8, !tbaa !20
  %.sroa.4.0..sroa_idx = getelementptr inbounds nuw i8, ptr %8, i64 16
  store ptr %6, ptr %.sroa.4.0..sroa_idx, align 8, !tbaa !22
  %.sroa.5.0..sroa_idx = getelementptr inbounds nuw i8, ptr %8, i64 24
  store i64 0, ptr %.sroa.5.0..sroa_idx, align 8, !tbaa !10
  ret ptr %8
}